target datalayout = "e-m:e-p270:32:32-p271:32:32-p272:64:64-i64:64-i128:128-f80:128-n8:16:32:64-S128"
target triple = "x86_64-pc-linux-gnu"

%struct.gres_state = type { i32, i32, ptr, ptr, i32 }
%struct.gres_job_state = type { i32, ptr, i16, i16, i64, i64, i64, i64, i64, i16, i16, i64, i32, ptr, ptr, ptr, ptr, i32, i64, i32, ptr, ptr, ptr, ptr, ptr, ptr }
%struct.gres_step_state = type { i32, ptr, i16, i16, i64, i64, i64, i64, i64, i16, i64, i64, ptr, i32, ptr, ptr, ptr }
%struct.job_validate_t = type { i32, ptr, i8, i8, i8, i8, i32, ptr, i32, i32 }
%struct.overlap_check_t = type { i32, i8, i8, ptr }

; Function Attrs: nounwind uwtable
define internal void @_set_over_array(ptr noundef %0, ptr noundef %1) #0 {
  %3 = alloca ptr, align 8
  %4 = alloca ptr, align 8
  %5 = alloca ptr, align 8
  %6 = alloca i32, align 4
  %7 = alloca ptr, align 8
  store ptr %0, ptr %3, align 8
  store ptr %1, ptr %4, align 8
  call void @llvm.lifetime.start.p0(i64 8, ptr %5) #11
  %8 = load ptr, ptr %4, align 8
  %9 = getelementptr inbounds nuw %struct.job_validate_t, ptr %8, i32 0, i32 4
  %10 = load i8, ptr %9, align 2, !range !8, !noundef !9
  %11 = trunc i8 %10 to i1
  br i1 %11, label %12, label %18

12:                                               ; preds = %2
  %13 = load ptr, ptr %3, align 8
  %14 = getelementptr inbounds nuw %struct.gres_state, ptr %13, i32 0, i32 2
  %15 = load ptr, ptr %14, align 8
  %16 = getelementptr inbounds nuw %struct.gres_job_state, ptr %15, i32 0, i32 1
  %17 = load ptr, ptr %16, align 8
  br label %24

18:                                               ; preds = %2
  %19 = load ptr, ptr %3, align 8
  %20 = getelementptr inbounds nuw %struct.gres_state, ptr %19, i32 0, i32 2
  %21 = load ptr, ptr %20, align 8
  %22 = getelementptr inbounds nuw %struct.gres_step_state, ptr %21, i32 0, i32 1
  %23 = load ptr, ptr %22, align 8
  br label %24

24:                                               ; preds = %18, %12
  %25 = phi ptr [ %17, %12 ], [ %23, %18 ]
  store ptr %25, ptr %5, align 8
  call void @llvm.lifetime.start.p0(i64 4, ptr %6) #11
  call void @llvm.lifetime.start.p0(i64 8, ptr %7) #11
  store ptr null, ptr %7, align 8
  store i32 0, ptr %6, align 4
  br label %26

26:                                               ; preds = %47, %24
  %27 = load i32, ptr %6, align 4
  %28 = load ptr, ptr %4, align 8
  %29 = getelementptr inbounds nuw %struct.job_validate_t, ptr %28, i32 0, i32 6
  %30 = load i32, ptr %29, align 4
  %31 = icmp slt i32 %27, %30
  br i1 %31, label %32, label %50

32:                                               ; preds = %26
  %33 = load ptr, ptr %4, align 8
  %34 = getelementptr inbounds nuw %struct.job_validate_t, ptr %33, i32 0, i32 7
  %35 = load ptr, ptr %34, align 8
  %36 = load i32, ptr %6, align 4
  %37 = sext i32 %36 to i64
  %38 = getelementptr inbounds %struct.overlap_check_t, ptr %35, i64 %37
  %39 = getelementptr inbounds nuw %struct.overlap_check_t, ptr %38, i32 0, i32 0
  %40 = load i32, ptr %39, align 8
  %41 = load ptr, ptr %3, align 8
  %42 = getelementptr inbounds nuw %struct.gres_state, ptr %41, i32 0, i32 1
  %43 = load i32, ptr %42, align 4
  %44 = icmp eq i32 %40, %43
  br i1 %44, label %45, label %46

45:                                               ; preds = %32
  br label %50

46:                                               ; preds = %32
  br label %47

47:                                               ; preds = %46
  %48 = load i32, ptr %6, align 4
  %49 = add nsw i32 %48, 1
  store i32 %49, ptr %6, align 4
  br label %26, !llvm.loop !206

50:                                               ; preds = %45, %26
  %51 = load ptr, ptr %4, align 8
  %52 = getelementptr inbounds nuw %struct.job_validate_t, ptr %51, i32 0, i32 7
  %53 = load ptr, ptr %52, align 8
  %54 = load i32, ptr %6, align 4
  %55 = sext i32 %54 to i64
  %56 = getelementptr inbounds %struct.overlap_check_t, ptr %53, i64 %55
  store ptr %56, ptr %7, align 8
  %57 = load i32, ptr %6, align 4
  %58 = load ptr, ptr %4, align 8
  %59 = getelementptr inbounds nuw %struct.job_validate_t, ptr %58, i32 0, i32 6
  %60 = load i32, ptr %59, align 4
  %61 = icmp sge i32 %57, %60
  br i1 %61, label %62, label %86

62:                                               ; preds = %50
  %63 = load ptr, ptr %4, align 8
  %64 = getelementptr inbounds nuw %struct.job_validate_t, ptr %63, i32 0, i32 6
  %65 = load i32, ptr %64, align 4
  %66 = add nsw i32 %65, 1
  store i32 %66, ptr %64, align 4
  %67 = load ptr, ptr %3, align 8
  %68 = getelementptr inbounds nuw %struct.gres_state, ptr %67, i32 0, i32 1
  %69 = load i32, ptr %68, align 4
  %70 = load ptr, ptr %7, align 8
  %71 = getelementptr inbounds nuw %struct.overlap_check_t, ptr %70, i32 0, i32 0
  store i32 %69, ptr %71, align 8
  %72 = load ptr, ptr %5, align 8
  %73 = icmp ne ptr %72, null
  br i1 %73, label %74, label %77

74:                                               ; preds = %62
  %75 = load ptr, ptr %7, align 8
  %76 = getelementptr inbounds nuw %struct.overlap_check_t, ptr %75, i32 0, i32 1
  store i8 1, ptr %76, align 4
  br label %85

77:                                               ; preds = %62
  %78 = load ptr, ptr %7, align 8
  %79 = getelementptr inbounds nuw %struct.overlap_check_t, ptr %78, i32 0, i32 2
  store i8 1, ptr %79, align 1
  %80 = load ptr, ptr %3, align 8
  %81 = getelementptr inbounds nuw %struct.gres_state, ptr %80, i32 0, i32 2
  %82 = load ptr, ptr %81, align 8
  %83 = load ptr, ptr %7, align 8
  %84 = getelementptr inbounds nuw %struct.overlap_check_t, ptr %83, i32 0, i32 3
  store ptr %82, ptr %84, align 8
  br label %85

85:                                               ; preds = %77, %74
  br label %117

86:                                               ; preds = %50
  %87 = load ptr, ptr %5, align 8
  %88 = icmp ne ptr %87, null
  br i1 %88, label %89, label %100

89:                                               ; preds = %86
  %90 = load ptr, ptr %7, align 8
  %91 = getelementptr inbounds nuw %struct.overlap_check_t, ptr %90, i32 0, i32 1
  store i8 1, ptr %91, align 4
  %92 = load ptr, ptr %7, align 8
  %93 = getelementptr inbounds nuw %struct.overlap_check_t, ptr %92, i32 0, i32 2
  %94 = load i8, ptr %93, align 1, !range !8, !noundef !9
  %95 = trunc i8 %94 to i1
  br i1 %95, label %96, label %99

96:                                               ; preds = %89
  %97 = load ptr, ptr %4, align 8
  %98 = getelementptr inbounds nuw %struct.job_validate_t, ptr %97, i32 0, i32 5
  store i8 1, ptr %98, align 1
  br label %99

99:                                               ; preds = %96, %89
  br label %116

100:                                              ; preds = %86
  %101 = load ptr, ptr %7, align 8
  %102 = getelementptr inbounds nuw %struct.overlap_check_t, ptr %101, i32 0, i32 2
  store i8 1, ptr %102, align 1
  %103 = load ptr, ptr %3, align 8
  %104 = getelementptr inbounds nuw %struct.gres_state, ptr %103, i32 0, i32 2
  %105 = load ptr, ptr %104, align 8
  %106 = load ptr, ptr %7, align 8
  %107 = getelementptr inbounds nuw %struct.overlap_check_t, ptr %106, i32 0, i32 3
  store ptr %105, ptr %107, align 8
  %108 = load ptr, ptr %7, align 8
  %109 = getelementptr inbounds nuw %struct.overlap_check_t, ptr %108, i32 0, i32 1
  %110 = load i8, ptr %109, align 4, !range !8, !noundef !9
  %111 = trunc i8 %110 to i1
  br i1 %111, label %112, label %115

112:                                              ; preds = %100
  %113 = load ptr, ptr %4, align 8
  %114 = getelementptr inbounds nuw %struct.job_validate_t, ptr %113, i32 0, i32 5
  store i8 1, ptr %114, align 1
  br label %115

115:                                              ; preds = %112, %100
  br label %116

116:                                              ; preds = %115, %99
  br label %117

117:                                              ; preds = %116, %85
  call void @llvm.lifetime.end.p0(i64 8, ptr %7) #11
  call void @llvm.lifetime.end.p0(i64 4, ptr %6) #11
  call void @llvm.lifetime.end.p0(i64 8, ptr %5) #11
  ret void
}

; Function Attrs: nounwind uwtable
define internal i32 @_foreach_set_over_array(ptr noundef %0, ptr noundef %1) #0 {
  %3 = alloca ptr, align 8
  %4 = alloca ptr, align 8
  store ptr %0, ptr %3, align 8
  store ptr %1, ptr %4, align 8
  %5 = load ptr, ptr %3, align 8
  %6 = load ptr, ptr %4, align 8
  call void @_set_over_array(ptr noundef %5, ptr noundef %6)
  ret i32 0
}