; Function Attrs: nofree norecurse nosync nounwind memory(readwrite, inaccessiblemem: none) uwtable
define internal noundef i32 @_foreach_set_over_array(ptr noundef readonly captures(none) %0, ptr noundef captures(none) %1) #20 {
  %.pn.in.i = getelementptr inbounds nuw i8, ptr %0, i64 8
  %.pn.i = load ptr, ptr %.pn.in.i, align 8
  %.in.i = getelementptr inbounds nuw i8, ptr %.pn.i, i64 8
  %3 = load ptr, ptr %.in.i, align 8
  %4 = getelementptr inbounds nuw i8, ptr %1, i64 20
  %5 = load i32, ptr %4, align 4
  %6 = icmp sgt i32 %5, 0
  %7 = getelementptr inbounds nuw i8, ptr %1, i64 24
  %8 = load ptr, ptr %7, align 8
  br i1 %6, label %.lr.ph.i, label %._crit_edge.i

.lr.ph.i:                                         ; preds = %2
  %9 = getelementptr inbounds nuw i8, ptr %0, i64 4
  %10 = load i32, ptr %9, align 4
  %wide.trip.count.i = zext nneg i32 %5 to i64
  br label %11

11:                                               ; preds = %15, %.lr.ph.i
  %indvars.iv.i = phi i64 [ 0, %.lr.ph.i ], [ %indvars.iv.next.i, %15 ]
  %12 = getelementptr inbounds nuw %struct.overlap_check_t, ptr %8, i64 %indvars.iv.i
  %13 = load i32, ptr %12, align 8
  %14 = icmp eq i32 %13, %10
  br i1 %14, label %26, label %15

15:                                               ; preds = %11
  %indvars.iv.next.i = add nuw nsw i64 %indvars.iv.i, 1
  %exitcond.not.i = icmp eq i64 %indvars.iv.next.i, %wide.trip.count.i
  br i1 %exitcond.not.i, label %._crit_edge.i, label %11, !llvm.loop !106

._crit_edge.i:                                    ; preds = %15, %2
  %.0.lcssa.i = phi i64 [ 0, %2 ], [ %wide.trip.count.i, %15 ]
  %16 = getelementptr inbounds nuw %struct.overlap_check_t, ptr %8, i64 %.0.lcssa.i
  %17 = add nsw i32 %5, 1
  store i32 %17, ptr %4, align 4
  %18 = getelementptr inbounds nuw i8, ptr %0, i64 4
  %19 = load i32, ptr %18, align 4
  store i32 %19, ptr %16, align 8
  %.not31.i = icmp eq ptr %3, null
  br i1 %.not31.i, label %22, label %20

20:                                               ; preds = %._crit_edge.i
  %21 = getelementptr inbounds nuw i8, ptr %16, i64 4
  store i8 1, ptr %21, align 4
  br label %_set_over_array.exit

22:                                               ; preds = %._crit_edge.i
  %23 = getelementptr inbounds nuw i8, ptr %16, i64 5
  store i8 1, ptr %23, align 1
  %24 = load ptr, ptr %.pn.in.i, align 8
  %25 = getelementptr inbounds nuw i8, ptr %16, i64 8
  store ptr %24, ptr %25, align 8
  br label %_set_over_array.exit

26:                                               ; preds = %11
  %27 = and i64 %indvars.iv.i, 4294967295
  %28 = getelementptr inbounds nuw %struct.overlap_check_t, ptr %8, i64 %27
  %.not30.i = icmp eq ptr %3, null
  br i1 %.not30.i, label %36, label %29

29:                                               ; preds = %26
  %30 = getelementptr inbounds nuw i8, ptr %28, i64 4
  store i8 1, ptr %30, align 4
  %31 = getelementptr inbounds nuw i8, ptr %28, i64 5
  %32 = load i8, ptr %31, align 1, !range !13, !noundef !14
  %33 = trunc nuw i8 %32 to i1
  br i1 %33, label %34, label %_set_over_array.exit

34:                                               ; preds = %29
  %35 = getelementptr inbounds nuw i8, ptr %1, i64 19
  store i8 1, ptr %35, align 1
  br label %_set_over_array.exit

36:                                               ; preds = %26
  %37 = getelementptr inbounds nuw i8, ptr %28, i64 5
  store i8 1, ptr %37, align 1
  %38 = load ptr, ptr %.pn.in.i, align 8
  %39 = getelementptr inbounds nuw i8, ptr %28, i64 8
  store ptr %38, ptr %39, align 8
  %40 = getelementptr inbounds nuw i8, ptr %28, i64 4
  %41 = load i8, ptr %40, align 4, !range !13, !noundef !14
  %42 = trunc nuw i8 %41 to i1
  br i1 %42, label %43, label %_set_over_array.exit

43:                                               ; preds = %36
  %44 = getelementptr inbounds nuw i8, ptr %1, i64 19
  store i8 1, ptr %44, align 1
  br label %_set_over_array.exit

_set_over_array.exit:                             ; preds = %20, %22, %29, %34, %36, %43
  ret i32 0
}